******************************************************************************
               TMS320C6x Linker PC v7.4.18                     
******************************************************************************
>> Linked Wed May 24 12:52:52 2017

OUTPUT FILE NAME:   <SystemIdentification.out>
ENTRY POINT SYMBOL: "_c_int00"  address: 0000e500


MEMORY CONFIGURATION

         name            origin    length      used     unused   attr    fill
----------------------  --------  ---------  --------  --------  ----  --------
  IRAM                  00000000   0003f000  0000fee5  0002f11b  RWIX
  MyBuffers             0003f000   00001000  00000fa0  00000060  RWIX
  SDRAM                 80000000   00800000  00008000  007f8000  RWIX


SECTION ALLOCATION MAP

 output                                  attributes/
section   page    origin      length       input sections
--------  ----  ----------  ----------   ----------------
.data      0    00000000    00000000     UNINITIALIZED

.vers      0    00000000    0000004c     COPY SECTION
                  00000000    0000004c     SystemIdentificationcfg.obj (.vers)

.hwi_vec   0    00000000    00000200     
                  00000000    00000200     SystemIdentificationcfg.obj (.hwi_vec)

.bios      0    00000200    00004280     
                  00000200    00000600     lnkrtdx.a67 : rtdx.o67 (.bios)
                  00000800    000005e0     bios.a67 : gbl_setL2CacheMode.o67 (.bios)
                  00000de0    00000540              : swi.o67 (.bios)
                  00001320    00000460              : hwi_disp_asm.o67 (.bios)
                  00001780    000003a0              : prd.o67 (.bios)
                  00001b20    000002c0              : knl_run.o67 (.bios)
                  00001de0    000002c0              : rta.o67 (.bios)
                  000020a0    000002c0              : sem_pend.o67 (.bios)
                  00002360    00000260              : knl_tick.o67 (.bios)
                  000025c0    00000240              : pip.o67 (.bios)
                  00002800    00000220              : sem_dopo.o67 (.bios)
                  00002a20    00000200              : tsk_setu.o67 (.bios)
                  00002c20    000001c0              : knl_swit.o67 (.bios)
                  00002de0    000001c0     biosC6000.a67 : clk.o67 (.bios)
                  00002fa0    000001a0     bios.a67 : tsk_exit.o67 (.bios)
                  00003140    00000180              : autoinit.o67 (.bios)
                  000032c0    00000180              : tsk_stup.o67 (.bios)
                  00003440    00000140              : knl_chec.o67 (.bios)
                  00003580    000000e0              : gbl_cslcacheinit.o67 (.bios)
                  00003660    000000e0              : knl_exit.o67 (.bios)
                  00003740    000000e0              : sem_post.o67 (.bios)
                  00003820    000000e0              : sem_post_asm.o67 (.bios)
                  00003900    000000e0     biosC6000.a67 : clk_meas.o67 (.bios)
                  000039e0    000000c0     bios.a67 : knl_ipos.o67 (.bios)
                  00003aa0    000000c0              : knl_post.o67 (.bios)
                  00003b60    000000c0              : lck.o67 (.bios)
                  00003c20    000000c0              : sys_exit.o67 (.bios)
                  00003ce0    000000c0     biosC6000.a67 : clk_htime.o67 (.bios)
                  00003da0    00000080     bios.a67 : fxn.o67 (.bios)
                  00003e20    00000080              : idl_busy.o67 (.bios)
                  00003ea0    00000080              : log.o67 (.bios)
                  00003f20    00000080              : sts.o67 (.bios)
                  00003fa0    00000080     biosC6000.a67 : idl_cal.o67 (.bios)
                  00004020    00000060     bios.a67 : hwi_c.o67 (.bios)
                  00004080    00000060              : sem_pend_binary.o67 (.bios)
                  000040e0    00000060              : sem_pend_counting.o67 (.bios)
                  00004140    00000060              : swi_disable.o67 (.bios)
                  000041a0    00000060              : sys_abor.o67 (.bios)
                  00004200    00000060              : utl_putc.o67 (.bios)
                  00004260    00000060     biosC6000.a67 : clk_start.o67 (.bios)
                  000042c0    00000040     bios.a67 : idl_stub.o67 (.bios)
                  00004300    00000040              : rta_andn.o67 (.bios)
                  00004340    00000040              : utl_doab.o67 (.bios)
                  00004380    00000040     biosC6000.a67 : clk_stop.o67 (.bios)
                  000043c0    00000020     bios.a67 : fxn_c.o67 (.bios)
                  000043e0    00000020              : gbl_vers.o67 (.bios)
                  00004400    00000020              : idl.o67 (.bios)
                  00004420    00000020              : sts_set.o67 (.bios)
                  00004440    00000020              : utl_doer.o67 (.bios)
                  00004460    00000020              : utl_halt.o67 (.bios)

.stack     0    00004480    00004000     UNINITIALIZED
                  00004480    00004000     --HOLE--

.text      0    00008480    000033c0     
                  00008480    00000ac0     skeleton.obj (.text)
                  00008f40    00000480     dsk6713bsl.lib : dsk6713.obj (.text)
                  000093c0    00000280     csl6713.lib : csl_edma.obj (.text:_EDMA_open)
                  00009640    00000240     rts6700.lib : memcpy62.obj (.text:_memcpy)
                  00009880    00000240     config_AIC23.obj (.text)
                  00009ac0    00000220     csl6713.lib : csl.obj (.text:__CSL_init)
                  00009ce0    000001e0     dsk6713bsl.lib : dsk6713_led.obj (.text)
                  00009ec0    000001c0     csl6713.lib : csl_irq.obj (.text:_IRQ_map)
                  0000a080    000001c0                 : csl_irq.obj (.text:_mux2Tables)
                  0000a240    000001a0                 : csl_edma.obj (.text:_EDMA_allocTable)
                  0000a3e0    000001a0                 : csl_mcbsp.obj (.text:_MCBSP_reset)
                  0000a580    00000180     bios.a67 : gbl_cslpllinit62.o67 (.text)
                  0000a700    00000160     rts6700.lib : sinit.obj (.text:_call_dtors)
                  0000a860    00000140     csl6713.lib : csl_edma.obj (.text:_EDMA_reset)
                  0000a9a0    00000140                 : csl_timer.obj (.text:_TIMER_open)
                  0000aae0    00000120                 : csl_timer.obj (.text:_TIMER_reset)
                  0000ac00    00000100                 : csl_edma.obj (.text:_EDMA_intAlloc)
                  0000ad00    00000100                 : csl_mcbsp.obj (.text:_MCBSP_open)
                  0000ae00    00000100                 : csl_mcbsp.obj (.text:_MCBSP_start)
                  0000af00    000000e0                 : csl_edma.obj (.text:_EDMA_config)
                  0000afe0    000000e0     rts6700.lib : strasg.obj (.text:__strasg)
                  0000b0c0    000000e0                 : atexit.obj (.text:_atexit)
                  0000b1a0    000000c0     bios.a67 : tsk_stup.o67 (.text)
                  0000b260    000000a0     csl6713.lib : csl_mcbsp.obj (.text:_MCBSP_config)
                  0000b300    000000a0                 : csl_irq.obj (.text:__IRQ_init)
                  0000b3a0    000000a0                 : csl_irq.obj (.text:_setMux)
                  0000b440    00000060                 : csl_edma.obj (.text:_EDMA_disableChannel)
                  0000b4a0    00000060                 : csl_edma.obj (.text:_EDMA_enableChannel)
                  0000b500    00000060                 : csl_edma.obj (.text:_EDMA_intEnable)
                  0000b560    00000060                 : csl_edma.obj (.text:_EDMA_qdmaConfig)
                  0000b5c0    00000040                 : csl_edma.obj (.text:_EDMA_link)
                  0000b600    00000040                 : csl_irq.obj (.text:_IRQ_enable)
                  0000b640    00000040     rts6700.lib : sinit.obj (.text:___add_dtor)
                  0000b680    00000020     csl6713.lib : csl.obj (.text:_CSL6713_LIB_)
                  0000b6a0    00000020                 : csl_edma.obj (.text:_EDMA_intClear)
                  0000b6c0    00000020                 : csl_edma.obj (.text:_EDMA_intTest)
                  0000b6e0    00000020                 : csl_irq.obj (.text:_IRQ_clear)
                  0000b700    00000020                 : csl_irq.obj (.text:_IRQ_globalDisable)
                  0000b720    00000020                 : csl_irq.obj (.text:_IRQ_globalEnable)
                  0000b740    00000020                 : csl_mcbsp.obj (.text:_MCBSP_getRcvAddr)
                  0000b760    00000020                 : csl_mcbsp.obj (.text:_MCBSP_getXmtAddr)
                  0000b780    00000020                 : csl_mcbsp.obj (.text:_MCBSP_write)
                  0000b7a0    00000020                 : csl_mcbsp.obj (.text:_MCBSP_xrdy)
                  0000b7c0    00000020     rts6700.lib : _lock.obj (.text:__nop)
                  0000b7e0    00000020                 : _lock.obj (.text:__register_lock)
                  0000b800    00000020                 : _lock.obj (.text:__register_unlock)
                  0000b820    00000020     csl6713.lib : csl_irq.obj (.text)

.cinit     0    0000b840    00001424     
                  0000b840    00000844     SystemIdentificationcfg.obj (.cinit)
                  0000c084    00000004     --HOLE-- [fill = 0]
                  0000c088    0000026c     bios.a67 : biosdata.o67 (.cinit)
                  0000c2f4    00000004     --HOLE-- [fill = 0]
                  0000c2f8    000001a4              : knl.o67 (.cinit)
                  0000c49c    00000004     --HOLE-- [fill = 0]
                  0000c4a0    0000012c     csl6713.lib : csl_irq.obj (.cinit)
                  0000c5cc    00000004     --HOLE-- [fill = 0]
                  0000c5d0    000000e4     skeleton.obj (.cinit)
                  0000c6b4    00000004     --HOLE-- [fill = 0]
                  0000c6b8    000000b0     bios.a67 : swi.o67 (.cinit)
                  0000c768    00000080              : tsk.o67 (.cinit)
                  0000c7e8    00000070     csl6713.lib : csl_edma.obj (.cinit)
                  0000c858    00000060     bios.a67 : tsk_stup.o67 (.cinit)
                  0000c8b8    0000005c     lnkrtdx.a67 : rtdx.o67 (.cinit)
                  0000c914    00000004     --HOLE-- [fill = 0]
                  0000c918    00000054     csl6713.lib : csl_mcbsp.obj (.cinit)
                  0000c96c    00000004     --HOLE-- [fill = 0]
                  0000c970    0000004c     bios.a67 : rta.o67 (.cinit)
                  0000c9bc    00000004     --HOLE-- [fill = 0]
                  0000c9c0    0000004c     csl6713.lib : csl_timer.obj (.cinit)
                  0000ca0c    00000004     --HOLE-- [fill = 0]
                  0000ca10    0000004c     rtdx.lib : buffer1.o62 (.cinit)
                  0000ca5c    00000004     --HOLE-- [fill = 0]
                  0000ca60    00000048     config_AIC23.obj (.cinit)
                  0000caa8    0000003c     csl6713.lib : csl.obj (.cinit)
                  0000cae4    00000004     --HOLE-- [fill = 0]
                  0000cae8    00000034     bios.a67 : hwi.o67 (.cinit)
                  0000cb1c    00000004     --HOLE-- [fill = 0]
                  0000cb20    0000002c              : utl_putc.o67 (.cinit)
                  0000cb4c    00000004     --HOLE-- [fill = 0]
                  0000cb50    0000002c     rts6700.lib : exit.obj (.cinit)
                  0000cb7c    00000004     --HOLE-- [fill = 0]
                  0000cb80    00000024     bios.a67 : obj_init.o67 (.cinit)
                  0000cba4    00000004     --HOLE-- [fill = 0]
                  0000cba8    0000001c              : sys.o67 (.cinit)
                  0000cbc4    00000004     --HOLE-- [fill = 0]
                  0000cbc8    0000001c     rts6700.lib : _lock.obj (.cinit)
                  0000cbe4    00000004     --HOLE-- [fill = 0]
                  0000cbe8    0000001c                 : atexit.obj (.cinit)
                  0000cc04    00000004     --HOLE-- [fill = 0]
                  0000cc08    00000018     bios.a67 : knl_tick.o67 (.cinit)
                  0000cc20    0000000c              : gbl_setL2CacheMode.o67 (.cinit)
                  0000cc2c    00000004     --HOLE-- [fill = 0]
                  0000cc30    0000000c              : idl_busy.o67 (.cinit)
                  0000cc3c    00000004     --HOLE-- [fill = 0]
                  0000cc40    0000000c              : knl_swit.o67 (.cinit)
                  0000cc4c    00000004     --HOLE-- [fill = 0]
                  0000cc50    0000000c     rts6700.lib : sinit.obj (.cinit)
                  0000cc5c    00000004     --HOLE-- [fill = 0]
                  0000cc60    00000004     (.pad.cinit) [fill = 0]

.log       0    0000cc64    00000018     
                  0000cc64    00000018     SystemIdentificationcfg.obj (.log)

.args      0    0000cc7c    00000004     
                  0000cc7c    00000004     --HOLE-- [fill = 0]

.rtdx_text 
*          0    0000cc80    00000ea0     
                  0000cc80    00000400     rtdx.lib : rtdx_mon.o62 (.rtdx_text:_RTDX_Poll)
                  0000d080    00000340              : buffer1.o62 (.rtdx_text:_RTDX_Buffer_WriteCB)
                  0000d3c0    00000300              : buffer1.o62 (.rtdx_text:_RTDX_write_next)
                  0000d6c0    00000140              : rtdx_mon.o62 (.rtdx_text:_RTDX_Mon_Queue)
                  0000d800    000000e0              : buffer1.o62 (.rtdx_text:_claim)
                  0000d8e0    00000080              : rtdx_mon.o62 (.rtdx_text:_RTDX_Init_RT_Monitor)
                  0000d960    00000060              : buffer1.o62 (.rtdx_text:_RTDX_Buffer_Initialize)
                  0000d9c0    00000060              : buffer2.o62 (.rtdx_text:_RTDX_Buffer_ReadCB)
                  0000da20    00000040              : buffer1.o62 (.rtdx_text:_RTDX_Buffer_Size)
                  0000da60    00000040              : rtdx_mon.o62 (.rtdx_text:_RTDX_Final_RT_Monitor)
                  0000daa0    00000020              : buffer2.o62 (.rtdx_text:_RTDX_Buffer_Read)
                  0000dac0    00000020              : buffer1.o62 (.rtdx_text:_RTDX_Buffer_Write)
                  0000dae0    00000020              : rtdx_mon.o62 (.rtdx_text:_RTDX_checksum)
                  0000db00    00000020              : intr_tgt.o62 (.rtdx_text)

.far       0    0000db20    00000608     UNINITIALIZED
                  0000db20    00000188     rts6700.lib : atexit.obj (.far)
                  0000dca8    000000f4     csl6713.lib : csl_irq.obj (.far)
                  0000dd9c    000000d8     bios.a67 : knl.o67 (.far)
                  0000de74    0000005c              : tsk.o67 (.far)
                  0000ded0    00000054              : obj_init.o67 (.far)
                  0000df24    00000054     csl6713.lib : csl_edma.obj (.far)
                  0000df78    00000050     bios.a67 : tsk_stup.o67 (.far)
                  0000dfc8    00000050     skeleton.obj (.far)
                  0000e018    00000038     csl6713.lib : csl_mcbsp.obj (.far)
                  0000e050    00000034     config_AIC23.obj (.far)
                  0000e084    00000028     csl6713.lib : csl.obj (.far)
                  0000e0ac    00000024                 : csl_timer.obj (.far)
                  0000e0d0    00000020     bios.a67 : sys.o67 (.far)
                  0000e0f0    00000010              : knl_tick.o67 (.far)
                  0000e100    0000000c              : utl_putc.o67 (.far)
                  0000e10c    0000000c     rts6700.lib : exit.obj (.far)
                  0000e118    00000008                 : _lock.obj (.far)
                  0000e120    00000004                 : sinit.obj (.far)
                  0000e124    00000002     dsk6713bsl.lib : dsk6713.obj (.far)
                  0000e126    00000002                    : dsk6713_led.obj (.far)

.hst1      0    0000e128    00000010     UNINITIALIZED
                  0000e128    00000010     SystemIdentificationcfg.obj (.hst1)

.clk       0    0000e138    00000008     UNINITIALIZED
                  0000e138    00000008     SystemIdentificationcfg.obj (.clk)

.sysinit   0    0000e140    00000520     
                  0000e140    000002e0     SystemIdentificationcfg.obj (.sysinit)
                  0000e420    000000e0     bios.a67 : mem_init.o67 (.sysinit)
                  0000e500    000000c0              : boot.o67 (.sysinit)
                  0000e5c0    00000080              : tsk_init.o67 (.sysinit)
                  0000e640    00000020              : obj_init.o67 (.sysinit)

.rtdx_data 
*          0    0000e660    0000044c     UNINITIALIZED
                  0000e660    00000410     SystemIdentificationcfg.obj (.rtdx_data)
                  0000ea70    00000020     rtdx.lib : buffer1.o62 (.rtdx_data)
                  0000ea90    0000001c              : rtdx_mon.o62 (.rtdx_data)

.mem       0    0000eaac    00000004     UNINITIALIZED
                  0000eaac    00000004     SystemIdentificationcfg.obj (.mem)

.TSK_idle$stk 
*          0    0000eab0    00000400     UNINITIALIZED
                  0000eab0    00000400     SystemIdentificationcfg.obj (.TSK_idle$stk)

.led_toggle_tsk$stk 
*          0    0000eeb0    00000400     UNINITIALIZED
                  0000eeb0    00000400     SystemIdentificationcfg.obj (.led_toggle_tsk$stk)

.bss       0    0000f2b0    00000384     UNINITIALIZED
                  0000f2b0    00000100     bios.a67 : hwi_disp_asm.o67 (.bss)
                  0000f3b0    000000cc              : biosdata.o67 (.bss)
                  0000f47c    0000009c              : swi.o67 (.bss)
                  0000f518    00000048              : knl.o67 (.bss)
                  0000f560    00000040     skeleton.obj (.bss)
                  0000f5a0    00000028     SystemIdentificationcfg.obj (.bss)
                  0000f5c8    00000018     bios.a67 : hwi.o67 (.bss)
                  0000f5e0    00000018     lnkrtdx.a67 : rtdx.o67 (.bss)
                  0000f5f8    00000010     rtdx.lib : buffer1.o62 (.bss)
                  0000f608    0000000c     bios.a67 : tsk.o67 (.bss)
                  0000f614    00000008              : clk_data.o67 (.bss)
                  0000f61c    00000008              : sys.o67 (.bss)
                  0000f624    00000004              : clk_data2.o67 (.bss)
                  0000f628    00000004              : gbl_setL2CacheMode.o67 (.bss)
                  0000f62c    00000004              : idl_busy.o67 (.bss)
                  0000f630    00000004              : mem_asm.o67 (.bss)

.trace     0    0000f634    00000200     
                  0000f634    00000200     --HOLE-- [fill = 00000000]

.pip       0    0000f834    000000c8     UNINITIALIZED
                  0000f834    000000c8     SystemIdentificationcfg.obj (.pip)

.LOG_system$buf 
*          0    0000f900    00000100     UNINITIALIZED
                  0000f900    00000100     SystemIdentificationcfg.obj (.LOG_system$buf)

.hst0      0    0000fa00    00000100     UNINITIALIZED
                  0000fa00    00000100     SystemIdentificationcfg.obj (.hst0)

.tsk       0    0000fb00    000000c0     UNINITIALIZED
                  0000fb00    000000c0     SystemIdentificationcfg.obj (.tsk)

.const     0    0000fbc0    000000b5     
                  0000fbc0    0000004e     bios.a67 : tsk_stup.o67 (.const)
                  0000fc0e    00000023              : utl_doab.o67 (.const)
                  0000fc31    00000022              : utl_doer.o67 (.const)
                  0000fc53    00000001     --HOLE-- [fill = 0]
                  0000fc54    00000020     dsk6713bsl.lib : dsk6713.obj (.const)
                  0000fc74    00000001     bios.a67 : tsk.o67 (.const)

.printf    0    0000fc75    000000c4     COPY SECTION
                  0000fc75    000000c4     SystemIdentificationcfg.obj (.printf)

.swi       0    0000fc78    000000b0     UNINITIALIZED
                  0000fc78    000000b0     SystemIdentificationcfg.obj (.swi)

.sts       0    0000fd28    00000080     
                  0000fd28    00000080     SystemIdentificationcfg.obj (.sts)

.gblinit   0    0000fda8    0000004c     
                  0000fda8    0000004c     SystemIdentificationcfg.obj (.gblinit)

.hst       0    0000fdf4    0000003c     UNINITIALIZED
                  0000fdf4    0000003c     SystemIdentificationcfg.obj (.hst)

.sem       0    0000fe30    0000002c     UNINITIALIZED
                  0000fe30    0000002c     SystemIdentificationcfg.obj (.sem)

.switch    0    0000fe5c    00000028     
                  0000fe5c    00000028     rtdx.lib : rtdx_mon.o62 (.switch)

.prd       0    0000fe84    00000020     UNINITIALIZED
                  0000fe84    00000020     SystemIdentificationcfg.obj (.prd)

.idl       0    0000fea4    00000010     UNINITIALIZED
                  0000fea4    00000010     SystemIdentificationcfg.obj (.idl)

.idlcal    0    0000feb4    00000010     UNINITIALIZED
                  0000feb4    00000010     SystemIdentificationcfg.obj (.idlcal)

.sys       0    0000fec4    00000010     UNINITIALIZED
                  0000fec4    00000010     SystemIdentificationcfg.obj (.sys)

.pinit     0    0000fed4    0000000c     
                  0000fed4    00000004     rtdx.lib : buffer1.o62 (.pinit)
                  0000fed8    00000004              : rtdx_mon.o62 (.pinit)
                  0000fedc    00000004     --HOLE-- [fill = 0]

.trcdata   0    0000fee0    0000000c     
                  0000fee0    0000000c     bios.a67 : trc.o67 (.trcdata)

.datenpuffer 
*          0    0003f000    00000fa0     UNINITIALIZED
                  0003f000    00000fa0     skeleton.obj (.datenpuffer)

.SDRAM$heap 
*          0    80000000    00008000     UNINITIALIZED
                  80000000    00008000     --HOLE--


GLOBAL SYMBOLS: SORTED ALPHABETICALLY BY Name 

address    name
--------   ----
0000f2b0   $bss
0000f2b0   .bss
00000000   .data
00008480   .text
0000e2fc   BIOS$$CLKOFF
0000e2bc   BIOS$$CLKON
0000e140   BIOS_init
0000e364   BIOS_start
00000000   BUF$
00000001   BUF_ENABLED
00000001   CLK$
0000e138   CLK_A_TABBEG
00000001   CLK_CALDIV
00000004   CLK_CALMULT
0000dbba   CLK_COUNTSPMS
00000000   CLK_COUNTSPMSHIGH
0000f3d8   CLK_D_idletime
0000f3d4   CLK_D_isrhook
0000f3d0   CLK_D_tabbeg
0000f3cc   CLK_D_timefxn
00003ce0   CLK_F_getfhtime
00003d00   CLK_F_gethtime
00002de0   CLK_F_getltime
00003d00   CLK_F_getshtime
00002df4   CLK_F_isr
00002f54   CLK_F_itime
00001320   CLK_HOOKFXN
00000001   CLK_HTIMEDIV
00000004   CLK_HTIMEMULT
0000dbba   CLK_HTIMEPERLTIME
00004000   CLK_INTBIT
00000001   CLK_LTIMEDIV
00036ee8   CLK_LTIMEMULT
000003e8   CLK_MICROSECS
0000dbba   CLK_PRD
00000000   CLK_PRDHIGH
01940000   CLK_REGS
0000f3c8   CLK_R_time
00000020   CLK_TCR
00000000   CLK_TDDR
00000000   CLK_TDDRHIGH
00003d00   CLK_TIMEFXN
00000000   CLK_TIMERNUM
00000001   CLK_USETIMER
0000e13c   CLK_null
00000000   DEV$
00000000   DGN$
00000000   DHL$
00000000   DHL_gChannelsAvailable
00000000   DIO$
00000000   DIO_NUMSWIBASE
00000000   DIO_NUMTSKBASE
00000000   DIO_STATIC
00000000   DPI$
00003da0   FXN_F_nop
00003da8   FXN_F_run
00003df8   FXN_F_zero
00000001   GBL$
00005205   GBL_A_VERSION
00000000   GBL_BIGENDIAN
00000000   GBL_C641XL2PRIORITY
00000000   GBL_CACHE
00000001   GBL_CALLCSLCFGINIT
00004e20   GBL_CLKIN
00001770   GBL_CLKTYPE
00001a39   GBL_DSPSUBTYPE
0000003e   GBL_DSPTYPE
00000001   GBL_ENABLEINST
00000042   GBL_FOOTPRINT
00036ee8   GBL_FREQ
00002226   GBL_L2ALLOC
00000000   GBL_L2CONFIGALLOC
00000001   GBL_L2CONFIGURE
00000001   GBL_L2MARMASK
00000000   GBL_L2MARMASK1
00000000   GBL_L2MARMASK2
00000000   GBL_L2MARMASK3
00000000   GBL_L2MARMASK4
00000000   GBL_L2MARMASK5
00000000   GBL_L2MODE
00000000   GBL_L2PRIORITY
00000000   GBL_NULL
00000000   GBL_PROCID
00000000   GBL_ROM
00000000   GBL_SUPPORTCSL
0000dbef   GBL_TRCMASKVALUE
00000001   GBL_USERINIT
0000a5a8   GBL_USERINITFXN
00000001   GBL_boot
0000fee8   GBL_initdone
00004480   GBL_stackbeg
0000847f   GBL_stackend
00000000   GIO$
000043c0   GIO_CREATEFXN
000043c0   GIO_DELETEFXN
000043c0   GIO_PENDFXN
000043c0   GIO_POSTFXN
00000000   HOOK$
00000000   HOOK_KNLID
00000001   HST$
0000fdf4   HST_A_TABBEG
0000fe30   HST_A_TABEND
00000000   HST_DSM
ffffffff   HST_DSMBUFSEG
00000400   HST_DSMMEMSIZE
0000f444   HST_D_chanmask
0000f448   HST_D_tabbeg
0000f44c   HST_D_tabend
000000ff   HST_MAXFRAMEALLOWED
00000040   HST_MAXFRAMESET
00000000   HST_NONE
00000001   HST_RTDX
00000001   HWI$
00000000   HWI_A_VECS
00004108   HWI_CFGDISPATCHED
0000f5d8   HWI_D_bss
0000f5dc   HWI_D_ccmask
0000f5c8   HWI_D_spsave
00001320   HWI_F_dispatch
00000000   HWI_GENERATE_RESET_VEC
0000000a   HWI_INT10
00000000   HWI_INT10$hwi
0000000b   HWI_INT11
00000000   HWI_INT11$hwi
0000000c   HWI_INT12
00000000   HWI_INT12$hwi
0000000d   HWI_INT13
00000000   HWI_INT13$hwi
0000000e   HWI_INT14
00000000   HWI_INT14$hwi
0000000f   HWI_INT15
00000000   HWI_INT15$hwi
00000004   HWI_INT4
00000000   HWI_INT4$hwi
00000005   HWI_INT5
00000000   HWI_INT5$hwi
00000006   HWI_INT6
00000000   HWI_INT6$hwi
00000007   HWI_INT7
00000000   HWI_INT7$hwi
00000008   HWI_INT8
00000000   HWI_INT8$hwi
00000009   HWI_INT9
00000000   HWI_INT9$hwi
082039a3   HWI_INTRMULTHIGH
310718a4   HWI_INTRMULTLOW
00000001   HWI_NMI
00000000   HWI_NMI$hwi
00000000   HWI_POLARITYMASK
00000002   HWI_RESERVED0
00000000   HWI_RESERVED0$hwi
00000003   HWI_RESERVED1
00000000   HWI_RESERVED1$hwi
00000000   HWI_RESET
00000000   HWI_RESET$hwi
00000001   HWI_ZEROTAB
00000001   IDL$
0000feb4   IDL_A_CALBEG
0000fea4   IDL_A_TABBEG
00000006   IDL_CALIBRERROR
000042c0   IDL_CALIBRFXN
0000f62c   IDL_D_busyObj
0000f3b8   IDL_D_calbeg
0000f3b4   IDL_D_calibrate
0000f3b0   IDL_D_tabbeg
0000feb0   IDL_END
0000fec0   IDL_END$
00003e20   IDL_F_busy
00003fa0   IDL_F_calibrate
00004400   IDL_F_loop
000042c0   IDL_F_stub
00000001   IDL_USECLKIDLTIME
0000fd9c   IDL_busyObj
0000fd34   IDL_busyObj$avgfmt
00000001   IDL_busyObj$filter
00000001   IDL_busyObj$iA
00000000   IDL_busyObj$iB
00000001   IDL_busyObj$iC
0000fd2e   IDL_busyObj$maxfmt
00000000   IDL_busyObj$operation
0000fd98   IDL_busyObj$stsobj
0000fd31   IDL_busyObj$sumfmt
00000002   IDL_busyObj$unittype
0000fea4   IDL_cpuLoad
0000feb4   IDL_cpuLoad$
ffffffff   IRAM
00000001   ISRC$
00002da0   KNL_glue
0000fca4   KNL_swi
00000001   KNL_swi$dorta
00000002   KNL_swi$ord
00000000   KNL_swi$pri
0000fd4c   KNL_swi$sts
0000fcbc   KNL_swi$sts$avgfmt
00000002   KNL_swi$sts$filter
00000001   KNL_swi$sts$filtmaxmult
00000001   KNL_swi$sts$filtsummult
0000fcac   KNL_swi$sts$maxfmt
0000fd48   KNL_swi$sts$stsobj
0000fcb4   KNL_swi$sts$sumfmt
00000000   KNL_swi$sts$unittype
00000000   KNL_swi$swi
00000001   LCK$
00000200   LNK_F_checkBufferCall
00000280   LNK_F_dataPump
00000220   LNK_F_getChanPtr
00000278   LNK_F_init
000007c4   LNK_F_readCallBack
0000fea8   LNK_dataPump
0000feb8   LNK_dataPump$
0000f5e4   LNK_dspFrameReadyMask
0000f5e0   LNK_dspFrameRequestMask
00000520   LNK_newin
00000660   LNK_newout
00000294   LNK_rcloop
00000360   LNK_rdrtry
0000f5ec   LNK_readDone
0000f5f0   LNK_readFail
0000f5e8   LNK_readPend
00000370   LNK_rrloop
0000f5f4   LNK_writeFail
00000444   LNK_wrloop
00000434   LNK_wrrtry
00000001   LOG$
0000cc64   LOG_A_TABBEG
0000cc7c   LOG_A_TABEND
00000001   LOG_A_TABLEN
0000f3bc   LOG_D_system
00000001   LOG_ENABLED
00003ea0   LOG_F_event
0000cc64   LOG_system
0000f900   LOG_system$buf
00000000   LOG_system$datatype
00000000   LOG_system$log
00000040   LOG_system$size
00000000   MBX$
00000001   MEM$
0000f5ac   MEM_MALLOCSEG
00000000   MEM_NULL
0000f5ac   MEM_SEGZERO
00000000   MEM_USEMPC
00000001   MEM_gNumHeap
00000000   MSGQ$
00000000   MSGQ_USEMSGQ
ffffffff   MyBuffers
00000000   OBJ$
00000000   PIP$
0000f834   PIP_A_TABBEG
0000f8fc   PIP_A_TABEND
00000002   PIP_A_TABLEN
0000f3c0   PIP_D_tabbeg
0000f3c4   PIP_D_tablen
00002654   PIP_F_give
00002654   PIP_F_probe
00002728   PIP_F_start
000025c0   PIP_F_take
00000064   PIP_OBJSIZE
00000000   PIP_gNextId
00000002   PIP_gNumEmbed
00000000   POOL$
00000000   POOL_USEPOOL
00000001   PRD$
0000fe84   PRD_A_TABBEG
0000fea4   PRD_A_TABEND
00000001   PRD_A_TABLEN
0000f400   PRD_D_cur
0000f404   PRD_D_elapsed
0000f408   PRD_D_prevtim
0000f40c   PRD_D_scalar
0000f410   PRD_D_swihandle
0000f414   PRD_D_tabbeg
0000f418   PRD_D_tablen
0000f41c   PRD_D_thook
0000f3fc   PRD_D_tick
00001780   PRD_F_swi
00001a40   PRD_F_tick
0000fe84   PRD_LED_Toggel
0000fea0   PRD_LED_Toggel$aaa
00000000   PRD_LED_Toggel$mode
00000002   PRD_LED_Toggel$ord
000003e8   PRD_LED_Toggel$period
00000000   PRD_LED_Toggel$prd
0000fd2c   PRD_LED_Toggel$sts
0000fc87   PRD_LED_Toggel$sts$avgfmt
00000000   PRD_LED_Toggel$sts$filter
0000fc75   PRD_LED_Toggel$sts$maxfmt
0000fd28   PRD_LED_Toggel$sts$stsobj
0000fc7e   PRD_LED_Toggel$sts$sumfmt
00000002   PRD_LED_Toggel$sts$unittype
00000008   PRD_SCALAR
0000fc78   PRD_SWIHANDLE
000025a0   PRD_THOOKFXN
0000e138   PRD_clock
0000fc78   PRD_swi
00000001   PRD_swi$dorta
00000001   PRD_swi$ord
00000001   PRD_swi$pri
0000fd3c   PRD_swi$sts
0000fca2   PRD_swi$sts$avgfmt
00000002   PRD_swi$sts$filter
00000001   PRD_swi$sts$filtmaxmult
00000001   PRD_swi$sts$filtsummult
0000fc92   PRD_swi$sts$maxfmt
0000fd38   PRD_swi$sts$stsobj
0000fc9a   PRD_swi$sts$sumfmt
00000000   PRD_swi$sts$unittype
00000000   PRD_swi$swi
00000001   QUE$
0000f420   RTA_D_fromHost
0000f428   RTA_D_logval
0000f438   RTA_D_stsval
0000f424   RTA_D_toHost
00004300   RTA_F_andn
00001ed8   RTA_F_dispatch
00001de0   RTA_F_getlog
00001e24   RTA_F_getsts
00004320   RTA_F_or
00001e6c   RTA_F_readblk
00001e98   RTA_F_resetmem
00001e8c   RTA_F_writeword
0000feac   RTA_dispatcher
0000febc   RTA_dispatcher$
00001f28   RTA_execute
0000fdf8   RTA_fromHost
0000e128   RTA_fromHost$buf
00000004   RTA_fromHost$framesize
00000000   RTA_fromHost$hst
00000001   RTA_fromHost$id
00000000   RTA_fromHost$mode
0000f834   RTA_fromHost$pipe
0000f864   RTA_fromHost$pipe$aaa
0000f894   RTA_fromHost$pipe$bbb
0000f5b0   RTA_fromHost$pipe$dtab
0000f838   RTA_fromHost$pipe$rd
0000f868   RTA_fromHost$pipe$wr
0000fe00   RTA_fromHost$rtdx
0000fe14   RTA_toHost
0000fa00   RTA_toHost$buf
00000040   RTA_toHost$framesize
00000000   RTA_toHost$hst
00000000   RTA_toHost$id
00000001   RTA_toHost$mode
0000f898   RTA_toHost$pipe
0000f8c8   RTA_toHost$pipe$aaa
0000f8f8   RTA_toHost$pipe$bbb
0000f5bc   RTA_toHost$pipe$dtab
0000f89c   RTA_toHost$pipe$rd
0000f8cc   RTA_toHost$pipe$wr
0000fe1c   RTA_toHost$rtdx
00000001   RTDX$
00000408   RTDX_BUFMEMSIZE
ffffffff   RTDX_DATAMEMSEG
00000000   RTDX_MODE
00000001   RTDX_NORMALIZED_HDR
00000001   RTDX_USERTDX
00000000   RTDX_USERTEXECUTION
0000f5ac   SDRAM
80000000   SDRAM$B
00008000   SDRAM$L
00000001   SEM$
0000fe3c   SEM_LEDToggle
00000000   SIO$
00000001   STS$
0000fd28   STS_A_TABBEG
0000fda8   STS_A_TABEND
00003f58   STS_F_add
00003f20   STS_F_delta
00003f84   STS_F_reset
00000001   SWI$
0000fc78   SWI_A_TABBEG
0000fd28   SWI_A_TABEND
00000004   SWI_A_TABLEN
0000f494   SWI_D_curfxn
0000f484   SWI_D_curmask
0000f490   SWI_D_curmbox
0000f488   SWI_D_curset
0000f480   SWI_D_execaddr
0000f49c   SWI_D_inswi
0000f48c   SWI_D_lock
0000f498   SWI_D_rdybeg
0000f4a0   SWI_D_rdytab
0000f47c   SWI_D_runaddr
00000000   SWI_EHOOKFXN
00000ffc   SWI_EXECFXN
00000de0   SWI_F_enable
00000ffc   SWI_F_exec
00001028   SWI_F_iexec
00000e50   SWI_F_post
000010b8   SWI_F_run
00000000   SWI_IHOOKFXN
000010b8   SWI_RUNFXN
0000fcd0   SWI_process_ping
00000001   SWI_process_ping$dorta
00000003   SWI_process_ping$ord
00000005   SWI_process_ping$pri
0000fd5c   SWI_process_ping$sts
0000fcd6   SWI_process_ping$sts$avgfmt
00000002   SWI_process_ping$sts$filter
00000001   SWI_process_ping$sts$filtmaxmult
00000001   SWI_process_ping$sts$filtsummult
0000fcc6   SWI_process_ping$sts$maxfmt
0000fd58   SWI_process_ping$sts$stsobj
0000fcce   SWI_process_ping$sts$sumfmt
00000000   SWI_process_ping$sts$unittype
00000000   SWI_process_ping$swi
0000fcfc   SWI_process_pong
00000001   SWI_process_pong$dorta
00000004   SWI_process_pong$ord
00000005   SWI_process_pong$pri
0000fd6c   SWI_process_pong$sts
0000fcf0   SWI_process_pong$sts$avgfmt
00000002   SWI_process_pong$sts$filter
00000001   SWI_process_pong$sts$filtmaxmult
00000001   SWI_process_pong$sts$filtsummult
0000fce0   SWI_process_pong$sts$maxfmt
0000fd68   SWI_process_pong$sts$stsobj
0000fce8   SWI_process_pong$sts$sumfmt
00000000   SWI_process_pong$sts$unittype
00000000   SWI_process_pong$swi
00000001   SYS$
0000fec4   SYS$config
00004340   SYS_ABORTFXN
00004440   SYS_ERRORFXN
00004460   SYS_EXITFXN
00004200   SYS_PUTCFXN
0000fee4   TRC_R_mask
0000fee0   TRC_cinit
00000001   TSK$
00000000   TSK_NUM_HOOKS
00000001   TSK_PRIORITY
00000000   TSK_READYFXN
00000000   TSK_STACKSEG
00000400   TSK_STACKSIZE
00000000   TSK_SWITCHFXN
000043c0   TSK_VCREATEFXN
000043c0   TSK_VDELETEFXN
000043c0   TSK_VEXITFXN
0000fb0c   TSK_idle
00000001   TSK_idle$ord
00000000   TSK_idle$pri
0000eab0   TSK_idle$stack
0000ee48   TSK_idle$stkptr
0000fd7c   TSK_idle$sts
0000fd0a   TSK_idle$sts$avgfmt
00000002   TSK_idle$sts$filter
00000001   TSK_idle$sts$filtmaxmult
00000001   TSK_idle$sts$filtsummult
0000fcfa   TSK_idle$sts$maxfmt
0000fd78   TSK_idle$sts$stsobj
0000fd02   TSK_idle$sts$sumfmt
00000000   TSK_idle$sts$unittype
00000000   TSK_idle$tsk
00000000   UDEV$
0000e140   _BIOS_init
0000e364   _BIOS_start
0003f000   _Buffer_in_ping
0003f3e8   _Buffer_in_pong
0003f7d0   _Buffer_out_ping
0003fbb8   _Buffer_out_pong
0000dbba   _CLK_COUNTSPMS
0000f614   _CLK_DFLTMICROSECS
0000f3f8   _CLK_D_countspms
0000f3ec   _CLK_D_dirty
0000f618   _CLK_D_microseconds
0000f3f0   _CLK_D_prd
0000f3f4   _CLK_D_tddr
00002f54   _CLK_F_itime
0000dbba   _CLK_PRD
01940000   _CLK_REGS
00000000   _CLK_TDDR
00000000   _CLK_TIMERNUM
00000001   _CLK_USETIMER
0000f3dc   _CLK_htimeDiv
0000f3e0   _CLK_htimeMult
0000f624   _CLK_htimePerLtime
00002f54   _CLK_itime
0000f3e4   _CLK_ltimeDiv
0000f3e8   _CLK_ltimeMult
00003900   _CLK_measure
00004260   _CLK_start
00004380   _CLK_stop
0000b680   _CSL6713_LIB_
00009880   _Config_DSK6713_AIC23
00009ce0   _DSK6713_LED_init
00009d20   _DSK6713_LED_off
00009d90   _DSK6713_LED_on
00009e00   _DSK6713_LED_toggle
00009354   _DSK6713_getVersion
00008f8c   _DSK6713_init
000092a8   _DSK6713_rget
000092bc   _DSK6713_rset
0000e124   _DSK6713_version
000092d0   _DSK6713_wait
00009328   _DSK6713_waitusec
0000a240   _EDMA_allocTable
0000af00   _EDMA_config
0000b440   _EDMA_disableChannel
0000b4a0   _EDMA_enableChannel
0000ac00   _EDMA_intAlloc
0000b6a0   _EDMA_intClear
0000b500   _EDMA_intEnable
0000b6c0   _EDMA_intTest
00008be8   _EDMA_interrupt_service
0000b5c0   _EDMA_link
000093c0   _EDMA_open
0000b560   _EDMA_qdmaConfig
0000a860   _EDMA_reset
000043c0   _FXN_F_nop
00003da8   _FXN_F_run
00003df8   _FXN_F_zero
00000000   _GBL_CACHE
0000f454   _GBL_clkIn
00003580   _GBL_cslCacheInit
0000f458   _GBL_freq
000043e0   _GBL_getVersion
0000f450   _GBL_procId
0000a5a8   _GBL_setPLLto225MHz
0000fdf4   _HST_A_TABBEG
0000fe30   _HST_A_TABEND
00004108   _HWI_CFGDISPATCHED
0000f5d4   _HWI_D_inhwi
0000f5c8   _HWI_D_spsave
00001320   _HWI_F_dispatch
0000000a   _HWI_INT10
0000000b   _HWI_INT11
0000000c   _HWI_INT12
0000000d   _HWI_INT13
0000000e   _HWI_INT14
0000000f   _HWI_INT15
00000004   _HWI_INT4
00000005   _HWI_INT5
00000006   _HWI_INT6
00000007   _HWI_INT7
00000008   _HWI_INT8
00000009   _HWI_INT9
00000001   _HWI_NMI
00000002   _HWI_RESERVED0
00000003   _HWI_RESERVED1
00000000   _HWI_RESET
00008478   _HWI_STKBOTTOM
00004480   _HWI_STKTOP
0000f5c8   _HWI_data
00004020   _HWI_disable
0000f2b0   _HWI_dispatchTab
00004038   _HWI_enable
0000404c   _HWI_restore
0000fd9c   _IDL_busyObj
0000fea4   _IDL_cpuLoad
00004400   _IDL_loop
ffffffff   _IRAM
0000b6e0   _IRQ_clear
0000b600   _IRQ_enable
0000b700   _IRQ_globalDisable
0000b720   _IRQ_globalEnable
00009ec0   _IRQ_map
0000f520   _KNL_alarm
00003440   _KNL_check
0000f544   _KNL_curqueue
0000f534   _KNL_curtask
0000f53c   _KNL_curtime
0000de3c   _KNL_dummy
000036b4   _KNL_enter
00003660   _KNL_exit
00003518   _KNL_idle
0000f55c   _KNL_idlefxn
0000f528   _KNL_inactive
000039e0   _KNL_ipost
0000353c   _KNL_max
0000f548   _KNL_maxqueue
00003aa0   _KNL_post
0000f538   _KNL_prevtask
0000f52c   _KNL_priority
0000dd9c   _KNL_queues
00001b20   _KNL_run
00002c20   _KNL_saveIsrFrame
0000f530   _KNL_set
0000f524   _KNL_setpri
0000fca4   _KNL_swi
0000f540   _KNL_swiptr
00002cec   _KNL_switch
0000f550   _KNL_tcreatefxn
0000f554   _KNL_tdeletefxn
000025a0   _KNL_tick
0000f558   _KNL_treadyfxn
0000f54c   _KNL_tswitchfxn
0000f518   _KNL_wFlag
0000f51c   _KNL_wList
00003b90   _LCK_pend
00003b60   _LCK_post
0000fea8   _LNK_dataPump
0000f5e4   _LNK_dspFrameReadyMask
0000f5e0   _LNK_dspFrameRequestMask
0000f5ec   _LNK_readDone
0000f5f0   _LNK_readFail
0000f5e8   _LNK_readPend
0000f5f4   _LNK_writeFail
0000cc64   _LOG_A_TABBEG
0000cc7c   _LOG_A_TABEND
00000001   _LOG_A_TABLEN
0000f3bc   _LOG_D_system
00003ea0   _LOG_event
0000cc64   _LOG_system
0000b260   _MCBSP_config
0000b740   _MCBSP_getRcvAddr
0000b760   _MCBSP_getXmtAddr
0000ad00   _MCBSP_open
0000a3e0   _MCBSP_reset
0000ae00   _MCBSP_start
0000b780   _MCBSP_write
0000b7a0   _MCBSP_xrdy
0000f630   _MEM
0000f45c   _MEM_D_NUMSEGMENTS
0000f464   _MEM_D_freelist
0000f468   _MEM_D_lockaddr
0000f460   _MEM_D_memtab
0000f46c   _MEM_D_unlockaddr
0000e420   _MEM_init
0000f5a0   _MEM_memtab
ffffffff   _MyBuffers
0000e640   _OBJ_init
0000df08   _OBJ_segtab
0000ded0   _OBJ_table
0000f834   _PIP_A_TABBEG
0000f8fc   _PIP_A_TABEND
0000f3fc   _PRD_D_tick
0000fe84   _PRD_LED_Toggel
0000e138   _PRD_clock
0000fc78   _PRD_swi
0000feac   _RTA_dispatcher
0000fdf8   _RTA_fromHost
0000fe14   _RTA_toHost
0000e660   _RTDX_Buffer
0000ea6c   _RTDX_Buffer_End
0000d960   _RTDX_Buffer_Initialize
0000daa0   _RTDX_Buffer_Read
0000d9c0   _RTDX_Buffer_ReadCB
0000da20   _RTDX_Buffer_Size
0000ea68   _RTDX_Buffer_Start
0000dac0   _RTDX_Buffer_Write
0000d080   _RTDX_Buffer_WriteCB
0000da60   _RTDX_Final_RT_Monitor
0000d8e0   _RTDX_Init_RT_Monitor
00000002   _RTDX_JTAGONLY
0000db00   _RTDX_Mask_IER
0000d6c0   _RTDX_Mon_Queue
0000cc80   _RTDX_Poll
00000000   _RTDX_interrupt_mask
0000ea7c   _RTDX_writing
0000f5ac   _SDRAM
80000000   _SDRAM_base
00008000   _SDRAM_length
0000fe3c   _SEM_LEDToggle
000040e0   _SEM_pend
00004080   _SEM_pendBinary
000020a0   _SEM_pendEnterKnl
00003820   _SEM_post
00003820   _SEM_postBinary
00003740   _SEM_postEnterKnl
0000fd28   _STS_A_TABBEG
0000fda8   _STS_A_TABEND
00003f58   _STS_add
00003f20   _STS_delta
00003f84   _STS_reset
00004420   _STS_set
0000f494   _SWI_D_curfxn
0000f484   _SWI_D_curmask
0000f488   _SWI_D_curset
0000f480   _SWI_D_execaddr
0000f49c   _SWI_D_inswi
0000f48c   _SWI_D_lock
0000f498   _SWI_D_rdybeg
0000f47c   _SWI_D_runaddr
00008ec4   _SWI_LEDToggle
0000f47c   _SWI_data
00004140   _SWI_disable
00004168   _SWI_enable
00000e50   _SWI_post
0000fcd0   _SWI_process_ping
0000fcfc   _SWI_process_pong
0000f470   _SYS
0000f634   _SYS_PUTCBEG
0000f833   _SYS_PUTCEND
000041a0   _SYS_abort
00003c20   _SYS_exit
0000e0d0   _SYS_exitStack
0000f61c   _SYS_exitStackPtr
0000f620   _SYS_exitStackTop
0000a9a0   _TIMER_open
0000aae0   _TIMER_reset
0000fee4   _TRC_R_mask
0000f610   _TSK
0000de74   _TSK_ATTRS
0000de90   _TSK_config
00002fa0   _TSK_exit
0000fb0c   _TSK_idle
0000e5c0   _TSK_init
0000f608   _TSK_nTasks
0000f60c   _TSK_pid
00002a20   _TSK_setup
00003380   _TSK_startup
0000deb0   _TSK_timerSem
00004340   _UTL_doAbort
00004440   _UTL_doError
00004200   _UTL_doPutc
00004460   _UTL_halt
00002f70   __CLK_lat1beg
00002f9c   __CLK_lat1end
00009ac0   __CSL_init
00000c34   __GBL_setL2CacheMode
0000f478   __HOOK_NUMHOOKS
0000f474   __HOOK_knlId
00001320   __HWI_lat1beg
000014a0   __HWI_lat1end
000014a0   __HWI_lat2beg
00001640   __HWI_lat2end1
000015cc   __HWI_lat2end2
00001660   __HWI_lat3beg
00001760   __HWI_lat3end1
000015fc   __HWI_lat3end2
00003e20   __IDL_lat1beg
00003e70   __IDL_lat1end
0000dd94   __IRQ_dispatchTable
0000dcd0   __IRQ_eventTable
0000b820   __IRQ_hookFetchPacket
0000b300   __IRQ_init
0000dd54   __IRQ_intTable
00003490   __KNL_lat1beg
00003518   __KNL_lat1end
00003ea0   __LOG_lat1beg
0000e048   __MCBSP_hDev0
0000e04c   __MCBSP_hDev1
0000dfa0   __MEM_mutex
00001e98   __RTA_lat1beg
00001ed0   __RTA_lat1end
00002800   __SEM_dopost
00008480   __STACK_END
00004000   __STACK_SIZE
00000f8c   __SWI_lat1beg
00001040   __SWI_lat1end
00001044   __SWI_lat2beg
000010b4   __SWI_lat2end
00000de0   __SWI_lat3beg
00000e4c   __SWI_lat3end
0000e0ac   __TIMER_deviceTable
0000e0cc   __TIMER_hBios
0000e0c4   __TIMER_hDev0
0000e0c8   __TIMER_hDev1
0000df78   __TSK_mutex
0000e114   ___TI_enable_exit_profile_output
ffffffff   ___TI_pprof_out_hndl
ffffffff   ___TI_prof_data_size
ffffffff   ___TI_prof_data_start
0000b640   ___add_dtor
0000db20   ___atexit_func_id__
ffffffff   ___binit__
0000f2b0   ___bss__
ffffffff   ___c_args__
0000b840   ___cinit__
00000000   ___data__
00000000   ___edata__
0000f634   ___end__
0000b840   ___etext__
0000fed4   ___pinit__
00008480   ___text__
00003140   __auto_init
0000e10c   __cleanup_ptr
0000e110   __dtors_ptr
0000e118   __lock
0000b7c0   __nop
0000b7e0   __register_lock
0000b800   __register_unlock
00004480   __stack
0000afe0   __strasg
0000e11c   __unlock
0000b0c0   _atexit
0000e500   _c_int00
0000a700   _call_dtors
0000dfe8   _configEDMARcv
0000e000   _configEDMAXmt
000085bc   _config_EDMA
00008b54   _config_interrupts
0000dfc8   _datainterface_config
0000e120   _dtors
0000f570   _hEdmaRcv
0000f574   _hEdmaReload
0000f57c   _hEdmaReloadRcvPing
0000f584   _hEdmaReloadRcvPong
0000f580   _hEdmaReloadXmtPing
0000f588   _hEdmaReloadXmtPong
0000f578   _hEdmaXmt
0000f58c   _hMcbsp
0000fb6c   _led_toggle_tsk
000084c8   _main
00009640   _memcpy
00008df4   _process_ping_SWI
00008e5c   _process_pong_SWI
0000f600   _rtdxNullChanCnt
0000f604   _rtdxNullFuncCnt
0000ea70   _rtdx_buffer_state
0000ea90   _rtdx_mon_state
0000df38   _tccAllocTable
0000f560   _tccRcvPing
0000f564   _tccRcvPong
0000f568   _tccXmtPing
0000f56c   _tccXmtPong
00008ef0   _tsk_led_toggle
0000a580   _wait500nS
ffffffff   binit
0000b840   cinit
00000000   edata
0000f634   end
0000b840   etext
00000000   hwi0
00000020   hwi1
00000140   hwi10
00000160   hwi11
00000180   hwi12
000001a0   hwi13
000001c0   hwi14
000001e0   hwi15
00000040   hwi2
00000060   hwi3
00000080   hwi4
000000a0   hwi5
000000c0   hwi6
000000e0   hwi7
00000100   hwi8
00000120   hwi9
0000fb6c   led_toggle_tsk
00000002   led_toggle_tsk$ord
00000001   led_toggle_tsk$pri
0000eeb0   led_toggle_tsk$stack
0000f248   led_toggle_tsk$stkptr
0000fd8c   led_toggle_tsk$sts
0000fd24   led_toggle_tsk$sts$avgfmt
00000002   led_toggle_tsk$sts$filter
00000001   led_toggle_tsk$sts$filtmaxmult
00000001   led_toggle_tsk$sts$filtsummult
0000fd14   led_toggle_tsk$sts$maxfmt
0000fd88   led_toggle_tsk$sts$stsobj
0000fd1c   led_toggle_tsk$sts$sumfmt
00000000   led_toggle_tsk$sts$unittype
00000000   led_toggle_tsk$tsk
0000fed4   pinit


GLOBAL SYMBOLS: SORTED BY Symbol Address 

address    name
--------   ----
00000000   .data
00000000   BUF$
00000000   CLK_COUNTSPMSHIGH
00000000   CLK_PRDHIGH
00000000   CLK_TDDR
00000000   CLK_TDDRHIGH
00000000   CLK_TIMERNUM
00000000   DEV$
00000000   DGN$
00000000   DHL$
00000000   DHL_gChannelsAvailable
00000000   DIO$
00000000   DIO_NUMSWIBASE
00000000   DIO_NUMTSKBASE
00000000   DIO_STATIC
00000000   DPI$
00000000   GBL_BIGENDIAN
00000000   GBL_C641XL2PRIORITY
00000000   GBL_CACHE
00000000   GBL_L2CONFIGALLOC
00000000   GBL_L2MARMASK1
00000000   GBL_L2MARMASK2
00000000   GBL_L2MARMASK3
00000000   GBL_L2MARMASK4
00000000   GBL_L2MARMASK5
00000000   GBL_L2MODE
00000000   GBL_L2PRIORITY
00000000   GBL_NULL
00000000   GBL_PROCID
00000000   GBL_ROM
00000000   GBL_SUPPORTCSL
00000000   GIO$
00000000   HOOK$
00000000   HOOK_KNLID
00000000   HST_DSM
00000000   HST_NONE
00000000   HWI_A_VECS
00000000   HWI_GENERATE_RESET_VEC
00000000   HWI_INT10$hwi
00000000   HWI_INT11$hwi
00000000   HWI_INT12$hwi
00000000   HWI_INT13$hwi
00000000   HWI_INT14$hwi
00000000   HWI_INT15$hwi
00000000   HWI_INT4$hwi
00000000   HWI_INT5$hwi
00000000   HWI_INT6$hwi
00000000   HWI_INT7$hwi
00000000   HWI_INT8$hwi
00000000   HWI_INT9$hwi
00000000   HWI_NMI$hwi
00000000   HWI_POLARITYMASK
00000000   HWI_RESERVED0$hwi
00000000   HWI_RESERVED1$hwi
00000000   HWI_RESET
00000000   HWI_RESET$hwi
00000000   IDL_busyObj$iB
00000000   IDL_busyObj$operation
00000000   KNL_swi$pri
00000000   KNL_swi$sts$unittype
00000000   KNL_swi$swi
00000000   LOG_system$datatype
00000000   LOG_system$log
00000000   MBX$
00000000   MEM_NULL
00000000   MEM_USEMPC
00000000   MSGQ$
00000000   MSGQ_USEMSGQ
00000000   OBJ$
00000000   PIP$
00000000   PIP_gNextId
00000000   POOL$
00000000   POOL_USEPOOL
00000000   PRD_LED_Toggel$mode
00000000   PRD_LED_Toggel$prd
00000000   PRD_LED_Toggel$sts$filter
00000000   PRD_swi$sts$unittype
00000000   PRD_swi$swi
00000000   RTA_fromHost$hst
00000000   RTA_fromHost$mode
00000000   RTA_toHost$hst
00000000   RTA_toHost$id
00000000   RTDX_MODE
00000000   RTDX_USERTEXECUTION
00000000   SIO$
00000000   SWI_EHOOKFXN
00000000   SWI_IHOOKFXN
00000000   SWI_process_ping$sts$unittype
00000000   SWI_process_ping$swi
00000000   SWI_process_pong$sts$unittype
00000000   SWI_process_pong$swi
00000000   TSK_NUM_HOOKS
00000000   TSK_READYFXN
00000000   TSK_STACKSEG
00000000   TSK_SWITCHFXN
00000000   TSK_idle$pri
00000000   TSK_idle$sts$unittype
00000000   TSK_idle$tsk
00000000   UDEV$
00000000   _CLK_TDDR
00000000   _CLK_TIMERNUM
00000000   _GBL_CACHE
00000000   _HWI_RESET
00000000   _RTDX_interrupt_mask
00000000   ___data__
00000000   ___edata__
00000000   edata
00000000   hwi0
00000000   led_toggle_tsk$sts$unittype
00000000   led_toggle_tsk$tsk
00000001   BUF_ENABLED
00000001   CLK$
00000001   CLK_CALDIV
00000001   CLK_HTIMEDIV
00000001   CLK_LTIMEDIV
00000001   CLK_USETIMER
00000001   GBL$
00000001   GBL_CALLCSLCFGINIT
00000001   GBL_ENABLEINST
00000001   GBL_L2CONFIGURE
00000001   GBL_L2MARMASK
00000001   GBL_USERINIT
00000001   GBL_boot
00000001   HST$
00000001   HST_RTDX
00000001   HWI$
00000001   HWI_NMI
00000001   HWI_ZEROTAB
00000001   IDL$
00000001   IDL_USECLKIDLTIME
00000001   IDL_busyObj$filter
00000001   IDL_busyObj$iA
00000001   IDL_busyObj$iC
00000001   ISRC$
00000001   KNL_swi$dorta
00000001   KNL_swi$sts$filtmaxmult
00000001   KNL_swi$sts$filtsummult
00000001   LCK$
00000001   LOG$
00000001   LOG_A_TABLEN
00000001   LOG_ENABLED
00000001   MEM$
00000001   MEM_gNumHeap
00000001   PRD$
00000001   PRD_A_TABLEN
00000001   PRD_swi$dorta
00000001   PRD_swi$ord
00000001   PRD_swi$pri
00000001   PRD_swi$sts$filtmaxmult
00000001   PRD_swi$sts$filtsummult
00000001   QUE$
00000001   RTA_fromHost$id
00000001   RTA_toHost$mode
00000001   RTDX$
00000001   RTDX_NORMALIZED_HDR
00000001   RTDX_USERTDX
00000001   SEM$
00000001   STS$
00000001   SWI$
00000001   SWI_process_ping$dorta
00000001   SWI_process_ping$sts$filtmaxmult
00000001   SWI_process_ping$sts$filtsummult
00000001   SWI_process_pong$dorta
00000001   SWI_process_pong$sts$filtmaxmult
00000001   SWI_process_pong$sts$filtsummult
00000001   SYS$
00000001   TSK$
00000001   TSK_PRIORITY
00000001   TSK_idle$ord
00000001   TSK_idle$sts$filtmaxmult
00000001   TSK_idle$sts$filtsummult
00000001   _CLK_USETIMER
00000001   _HWI_NMI
00000001   _LOG_A_TABLEN
00000001   led_toggle_tsk$pri
00000001   led_toggle_tsk$sts$filtmaxmult
00000001   led_toggle_tsk$sts$filtsummult
00000002   HWI_RESERVED0
00000002   IDL_busyObj$unittype
00000002   KNL_swi$ord
00000002   KNL_swi$sts$filter
00000002   PIP_A_TABLEN
00000002   PIP_gNumEmbed
00000002   PRD_LED_Toggel$ord
00000002   PRD_LED_Toggel$sts$unittype
00000002   PRD_swi$sts$filter
00000002   SWI_process_ping$sts$filter
00000002   SWI_process_pong$sts$filter
00000002   TSK_idle$sts$filter
00000002   _HWI_RESERVED0
00000002   _RTDX_JTAGONLY
00000002   led_toggle_tsk$ord
00000002   led_toggle_tsk$sts$filter
00000003   HWI_RESERVED1
00000003   SWI_process_ping$ord
00000003   _HWI_RESERVED1
00000004   CLK_CALMULT
00000004   CLK_HTIMEMULT
00000004   HWI_INT4
00000004   RTA_fromHost$framesize
00000004   SWI_A_TABLEN
00000004   SWI_process_pong$ord
00000004   _HWI_INT4
00000005   HWI_INT5
00000005   SWI_process_ping$pri
00000005   SWI_process_pong$pri
00000005   _HWI_INT5
00000006   HWI_INT6
00000006   IDL_CALIBRERROR
00000006   _HWI_INT6
00000007   HWI_INT7
00000007   _HWI_INT7
00000008   HWI_INT8
00000008   PRD_SCALAR
00000008   _HWI_INT8
00000009   HWI_INT9
00000009   _HWI_INT9
0000000a   HWI_INT10
0000000a   _HWI_INT10
0000000b   HWI_INT11
0000000b   _HWI_INT11
0000000c   HWI_INT12
0000000c   _HWI_INT12
0000000d   HWI_INT13
0000000d   _HWI_INT13
0000000e   HWI_INT14
0000000e   _HWI_INT14
0000000f   HWI_INT15
0000000f   _HWI_INT15
00000020   CLK_TCR
00000020   hwi1
0000003e   GBL_DSPTYPE
00000040   HST_MAXFRAMESET
00000040   LOG_system$size
00000040   RTA_toHost$framesize
00000040   hwi2
00000042   GBL_FOOTPRINT
00000060   hwi3
00000064   PIP_OBJSIZE
00000080   hwi4
000000a0   hwi5
000000c0   hwi6
000000e0   hwi7
000000ff   HST_MAXFRAMEALLOWED
00000100   hwi8
00000120   hwi9
00000140   hwi10
00000160   hwi11
00000180   hwi12
000001a0   hwi13
000001c0   hwi14
000001e0   hwi15
00000200   LNK_F_checkBufferCall
00000220   LNK_F_getChanPtr
00000278   LNK_F_init
00000280   LNK_F_dataPump
00000294   LNK_rcloop
00000360   LNK_rdrtry
00000370   LNK_rrloop
000003e8   CLK_MICROSECS
000003e8   PRD_LED_Toggel$period
00000400   HST_DSMMEMSIZE
00000400   TSK_STACKSIZE
00000408   RTDX_BUFMEMSIZE
00000434   LNK_wrrtry
00000444   LNK_wrloop
00000520   LNK_newin
00000660   LNK_newout
000007c4   LNK_F_readCallBack
00000c34   __GBL_setL2CacheMode
00000de0   SWI_F_enable
00000de0   __SWI_lat3beg
00000e4c   __SWI_lat3end
00000e50   SWI_F_post
00000e50   _SWI_post
00000f8c   __SWI_lat1beg
00000ffc   SWI_EXECFXN
00000ffc   SWI_F_exec
00001028   SWI_F_iexec
00001040   __SWI_lat1end
00001044   __SWI_lat2beg
000010b4   __SWI_lat2end
000010b8   SWI_F_run
000010b8   SWI_RUNFXN
00001320   CLK_HOOKFXN
00001320   HWI_F_dispatch
00001320   _HWI_F_dispatch
00001320   __HWI_lat1beg
000014a0   __HWI_lat1end
000014a0   __HWI_lat2beg
000015cc   __HWI_lat2end2
000015fc   __HWI_lat3end2
00001640   __HWI_lat2end1
00001660   __HWI_lat3beg
00001760   __HWI_lat3end1
00001770   GBL_CLKTYPE
00001780   PRD_F_swi
00001a39   GBL_DSPSUBTYPE
00001a40   PRD_F_tick
00001b20   _KNL_run
00001de0   RTA_F_getlog
00001e24   RTA_F_getsts
00001e6c   RTA_F_readblk
00001e8c   RTA_F_writeword
00001e98   RTA_F_resetmem
00001e98   __RTA_lat1beg
00001ed0   __RTA_lat1end
00001ed8   RTA_F_dispatch
00001f28   RTA_execute
000020a0   _SEM_pendEnterKnl
00002226   GBL_L2ALLOC
000025a0   PRD_THOOKFXN
000025a0   _KNL_tick
000025c0   PIP_F_take
00002654   PIP_F_give
00002654   PIP_F_probe
00002728   PIP_F_start
00002800   __SEM_dopost
00002a20   _TSK_setup
00002c20   _KNL_saveIsrFrame
00002cec   _KNL_switch
00002da0   KNL_glue
00002de0   CLK_F_getltime
00002df4   CLK_F_isr
00002f54   CLK_F_itime
00002f54   _CLK_F_itime
00002f54   _CLK_itime
00002f70   __CLK_lat1beg
00002f9c   __CLK_lat1end
00002fa0   _TSK_exit
00003140   __auto_init
00003380   _TSK_startup
00003440   _KNL_check
00003490   __KNL_lat1beg
00003518   _KNL_idle
00003518   __KNL_lat1end
0000353c   _KNL_max
00003580   _GBL_cslCacheInit
00003660   _KNL_exit
000036b4   _KNL_enter
00003740   _SEM_postEnterKnl
00003820   _SEM_post
00003820   _SEM_postBinary
00003900   _CLK_measure
000039e0   _KNL_ipost
00003aa0   _KNL_post
00003b60   _LCK_post
00003b90   _LCK_pend
00003c20   _SYS_exit
00003ce0   CLK_F_getfhtime
00003d00   CLK_F_gethtime
00003d00   CLK_F_getshtime
00003d00   CLK_TIMEFXN
00003da0   FXN_F_nop
00003da8   FXN_F_run
00003da8   _FXN_F_run
00003df8   FXN_F_zero
00003df8   _FXN_F_zero
00003e20   IDL_F_busy
00003e20   __IDL_lat1beg
00003e70   __IDL_lat1end
00003ea0   LOG_F_event
00003ea0   _LOG_event
00003ea0   __LOG_lat1beg
00003f20   STS_F_delta
00003f20   _STS_delta
00003f58   STS_F_add
00003f58   _STS_add
00003f84   STS_F_reset
00003f84   _STS_reset
00003fa0   IDL_F_calibrate
00004000   CLK_INTBIT
00004000   __STACK_SIZE
00004020   _HWI_disable
00004038   _HWI_enable
0000404c   _HWI_restore
00004080   _SEM_pendBinary
000040e0   _SEM_pend
00004108   HWI_CFGDISPATCHED
00004108   _HWI_CFGDISPATCHED
00004140   _SWI_disable
00004168   _SWI_enable
000041a0   _SYS_abort
00004200   SYS_PUTCFXN
00004200   _UTL_doPutc
00004260   _CLK_start
000042c0   IDL_CALIBRFXN
000042c0   IDL_F_stub
00004300   RTA_F_andn
00004320   RTA_F_or
00004340   SYS_ABORTFXN
00004340   _UTL_doAbort
00004380   _CLK_stop
000043c0   GIO_CREATEFXN
000043c0   GIO_DELETEFXN
000043c0   GIO_PENDFXN
000043c0   GIO_POSTFXN
000043c0   TSK_VCREATEFXN
000043c0   TSK_VDELETEFXN
000043c0   TSK_VEXITFXN
000043c0   _FXN_F_nop
000043e0   _GBL_getVersion
00004400   IDL_F_loop
00004400   _IDL_loop
00004420   _STS_set
00004440   SYS_ERRORFXN
00004440   _UTL_doError
00004460   SYS_EXITFXN
00004460   _UTL_halt
00004480   GBL_stackbeg
00004480   _HWI_STKTOP
00004480   __stack
00004e20   GBL_CLKIN
00005205   GBL_A_VERSION
00008000   SDRAM$L
00008000   _SDRAM_length
00008478   _HWI_STKBOTTOM
0000847f   GBL_stackend
00008480   .text
00008480   __STACK_END
00008480   ___text__
000084c8   _main
000085bc   _config_EDMA
00008b54   _config_interrupts
00008be8   _EDMA_interrupt_service
00008df4   _process_ping_SWI
00008e5c   _process_pong_SWI
00008ec4   _SWI_LEDToggle
00008ef0   _tsk_led_toggle
00008f8c   _DSK6713_init
000092a8   _DSK6713_rget
000092bc   _DSK6713_rset
000092d0   _DSK6713_wait
00009328   _DSK6713_waitusec
00009354   _DSK6713_getVersion
000093c0   _EDMA_open
00009640   _memcpy
00009880   _Config_DSK6713_AIC23
00009ac0   __CSL_init
00009ce0   _DSK6713_LED_init
00009d20   _DSK6713_LED_off
00009d90   _DSK6713_LED_on
00009e00   _DSK6713_LED_toggle
00009ec0   _IRQ_map
0000a240   _EDMA_allocTable
0000a3e0   _MCBSP_reset
0000a580   _wait500nS
0000a5a8   GBL_USERINITFXN
0000a5a8   _GBL_setPLLto225MHz
0000a700   _call_dtors
0000a860   _EDMA_reset
0000a9a0   _TIMER_open
0000aae0   _TIMER_reset
0000ac00   _EDMA_intAlloc
0000ad00   _MCBSP_open
0000ae00   _MCBSP_start
0000af00   _EDMA_config
0000afe0   __strasg
0000b0c0   _atexit
0000b260   _MCBSP_config
0000b300   __IRQ_init
0000b440   _EDMA_disableChannel
0000b4a0   _EDMA_enableChannel
0000b500   _EDMA_intEnable
0000b560   _EDMA_qdmaConfig
0000b5c0   _EDMA_link
0000b600   _IRQ_enable
0000b640   ___add_dtor
0000b680   _CSL6713_LIB_
0000b6a0   _EDMA_intClear
0000b6c0   _EDMA_intTest
0000b6e0   _IRQ_clear
0000b700   _IRQ_globalDisable
0000b720   _IRQ_globalEnable
0000b740   _MCBSP_getRcvAddr
0000b760   _MCBSP_getXmtAddr
0000b780   _MCBSP_write
0000b7a0   _MCBSP_xrdy
0000b7c0   __nop
0000b7e0   __register_lock
0000b800   __register_unlock
0000b820   __IRQ_hookFetchPacket
0000b840   ___cinit__
0000b840   ___etext__
0000b840   cinit
0000b840   etext
0000cc64   LOG_A_TABBEG
0000cc64   LOG_system
0000cc64   _LOG_A_TABBEG
0000cc64   _LOG_system
0000cc7c   LOG_A_TABEND
0000cc7c   _LOG_A_TABEND
0000cc80   _RTDX_Poll
0000d080   _RTDX_Buffer_WriteCB
0000d6c0   _RTDX_Mon_Queue
0000d8e0   _RTDX_Init_RT_Monitor
0000d960   _RTDX_Buffer_Initialize
0000d9c0   _RTDX_Buffer_ReadCB
0000da20   _RTDX_Buffer_Size
0000da60   _RTDX_Final_RT_Monitor
0000daa0   _RTDX_Buffer_Read
0000dac0   _RTDX_Buffer_Write
0000db00   _RTDX_Mask_IER
0000db20   ___atexit_func_id__
0000dbba   CLK_COUNTSPMS
0000dbba   CLK_HTIMEPERLTIME
0000dbba   CLK_PRD
0000dbba   _CLK_COUNTSPMS
0000dbba   _CLK_PRD
0000dbef   GBL_TRCMASKVALUE
0000dcd0   __IRQ_eventTable
0000dd54   __IRQ_intTable
0000dd94   __IRQ_dispatchTable
0000dd9c   _KNL_queues
0000de3c   _KNL_dummy
0000de74   _TSK_ATTRS
0000de90   _TSK_config
0000deb0   _TSK_timerSem
0000ded0   _OBJ_table
0000df08   _OBJ_segtab
0000df38   _tccAllocTable
0000df78   __TSK_mutex
0000dfa0   __MEM_mutex
0000dfc8   _datainterface_config
0000dfe8   _configEDMARcv
0000e000   _configEDMAXmt
0000e048   __MCBSP_hDev0
0000e04c   __MCBSP_hDev1
0000e0ac   __TIMER_deviceTable
0000e0c4   __TIMER_hDev0
0000e0c8   __TIMER_hDev1
0000e0cc   __TIMER_hBios
0000e0d0   _SYS_exitStack
0000e10c   __cleanup_ptr
0000e110   __dtors_ptr
0000e114   ___TI_enable_exit_profile_output
0000e118   __lock
0000e11c   __unlock
0000e120   _dtors
0000e124   _DSK6713_version
0000e128   RTA_fromHost$buf
0000e138   CLK_A_TABBEG
0000e138   PRD_clock
0000e138   _PRD_clock
0000e13c   CLK_null
0000e140   BIOS_init
0000e140   _BIOS_init
0000e2bc   BIOS$$CLKON
0000e2fc   BIOS$$CLKOFF
0000e364   BIOS_start
0000e364   _BIOS_start
0000e420   _MEM_init
0000e500   _c_int00
0000e5c0   _TSK_init
0000e640   _OBJ_init
0000e660   _RTDX_Buffer
0000ea68   _RTDX_Buffer_Start
0000ea6c   _RTDX_Buffer_End
0000ea70   _rtdx_buffer_state
0000ea7c   _RTDX_writing
0000ea90   _rtdx_mon_state
0000eab0   TSK_idle$stack
0000ee48   TSK_idle$stkptr
0000eeb0   led_toggle_tsk$stack
0000f248   led_toggle_tsk$stkptr
0000f2b0   $bss
0000f2b0   .bss
0000f2b0   _HWI_dispatchTab
0000f2b0   ___bss__
0000f3b0   IDL_D_tabbeg
0000f3b4   IDL_D_calibrate
0000f3b8   IDL_D_calbeg
0000f3bc   LOG_D_system
0000f3bc   _LOG_D_system
0000f3c0   PIP_D_tabbeg
0000f3c4   PIP_D_tablen
0000f3c8   CLK_R_time
0000f3cc   CLK_D_timefxn
0000f3d0   CLK_D_tabbeg
0000f3d4   CLK_D_isrhook
0000f3d8   CLK_D_idletime
0000f3dc   _CLK_htimeDiv
0000f3e0   _CLK_htimeMult
0000f3e4   _CLK_ltimeDiv
0000f3e8   _CLK_ltimeMult
0000f3ec   _CLK_D_dirty
0000f3f0   _CLK_D_prd
0000f3f4   _CLK_D_tddr
0000f3f8   _CLK_D_countspms
0000f3fc   PRD_D_tick
0000f3fc   _PRD_D_tick
0000f400   PRD_D_cur
0000f404   PRD_D_elapsed
0000f408   PRD_D_prevtim
0000f40c   PRD_D_scalar
0000f410   PRD_D_swihandle
0000f414   PRD_D_tabbeg
0000f418   PRD_D_tablen
0000f41c   PRD_D_thook
0000f420   RTA_D_fromHost
0000f424   RTA_D_toHost
0000f428   RTA_D_logval
0000f438   RTA_D_stsval
0000f444   HST_D_chanmask
0000f448   HST_D_tabbeg
0000f44c   HST_D_tabend
0000f450   _GBL_procId
0000f454   _GBL_clkIn
0000f458   _GBL_freq
0000f45c   _MEM_D_NUMSEGMENTS
0000f460   _MEM_D_memtab
0000f464   _MEM_D_freelist
0000f468   _MEM_D_lockaddr
0000f46c   _MEM_D_unlockaddr
0000f470   _SYS
0000f474   __HOOK_knlId
0000f478   __HOOK_NUMHOOKS
0000f47c   SWI_D_runaddr
0000f47c   _SWI_D_runaddr
0000f47c   _SWI_data
0000f480   SWI_D_execaddr
0000f480   _SWI_D_execaddr
0000f484   SWI_D_curmask
0000f484   _SWI_D_curmask
0000f488   SWI_D_curset
0000f488   _SWI_D_curset
0000f48c   SWI_D_lock
0000f48c   _SWI_D_lock
0000f490   SWI_D_curmbox
0000f494   SWI_D_curfxn
0000f494   _SWI_D_curfxn
0000f498   SWI_D_rdybeg
0000f498   _SWI_D_rdybeg
0000f49c   SWI_D_inswi
0000f49c   _SWI_D_inswi
0000f4a0   SWI_D_rdytab
0000f518   _KNL_wFlag
0000f51c   _KNL_wList
0000f520   _KNL_alarm
0000f524   _KNL_setpri
0000f528   _KNL_inactive
0000f52c   _KNL_priority
0000f530   _KNL_set
0000f534   _KNL_curtask
0000f538   _KNL_prevtask
0000f53c   _KNL_curtime
0000f540   _KNL_swiptr
0000f544   _KNL_curqueue
0000f548   _KNL_maxqueue
0000f54c   _KNL_tswitchfxn
0000f550   _KNL_tcreatefxn
0000f554   _KNL_tdeletefxn
0000f558   _KNL_treadyfxn
0000f55c   _KNL_idlefxn
0000f560   _tccRcvPing
0000f564   _tccRcvPong
0000f568   _tccXmtPing
0000f56c   _tccXmtPong
0000f570   _hEdmaRcv
0000f574   _hEdmaReload
0000f578   _hEdmaXmt
0000f57c   _hEdmaReloadRcvPing
0000f580   _hEdmaReloadXmtPing
0000f584   _hEdmaReloadRcvPong
0000f588   _hEdmaReloadXmtPong
0000f58c   _hMcbsp
0000f5a0   _MEM_memtab
0000f5ac   MEM_MALLOCSEG
0000f5ac   MEM_SEGZERO
0000f5ac   SDRAM
0000f5ac   _SDRAM
0000f5b0   RTA_fromHost$pipe$dtab
0000f5bc   RTA_toHost$pipe$dtab
0000f5c8   HWI_D_spsave
0000f5c8   _HWI_D_spsave
0000f5c8   _HWI_data
0000f5d4   _HWI_D_inhwi
0000f5d8   HWI_D_bss
0000f5dc   HWI_D_ccmask
0000f5e0   LNK_dspFrameRequestMask
0000f5e0   _LNK_dspFrameRequestMask
0000f5e4   LNK_dspFrameReadyMask
0000f5e4   _LNK_dspFrameReadyMask
0000f5e8   LNK_readPend
0000f5e8   _LNK_readPend
0000f5ec   LNK_readDone
0000f5ec   _LNK_readDone
0000f5f0   LNK_readFail
0000f5f0   _LNK_readFail
0000f5f4   LNK_writeFail
0000f5f4   _LNK_writeFail
0000f600   _rtdxNullChanCnt
0000f604   _rtdxNullFuncCnt
0000f608   _TSK_nTasks
0000f60c   _TSK_pid
0000f610   _TSK
0000f614   _CLK_DFLTMICROSECS
0000f618   _CLK_D_microseconds
0000f61c   _SYS_exitStackPtr
0000f620   _SYS_exitStackTop
0000f624   _CLK_htimePerLtime
0000f62c   IDL_D_busyObj
0000f630   _MEM
0000f634   _SYS_PUTCBEG
0000f634   ___end__
0000f634   end
0000f833   _SYS_PUTCEND
0000f834   PIP_A_TABBEG
0000f834   RTA_fromHost$pipe
0000f834   _PIP_A_TABBEG
0000f838   RTA_fromHost$pipe$rd
0000f864   RTA_fromHost$pipe$aaa
0000f868   RTA_fromHost$pipe$wr
0000f894   RTA_fromHost$pipe$bbb
0000f898   RTA_toHost$pipe
0000f89c   RTA_toHost$pipe$rd
0000f8c8   RTA_toHost$pipe$aaa
0000f8cc   RTA_toHost$pipe$wr
0000f8f8   RTA_toHost$pipe$bbb
0000f8fc   PIP_A_TABEND
0000f8fc   _PIP_A_TABEND
0000f900   LOG_system$buf
0000fa00   RTA_toHost$buf
0000fb0c   TSK_idle
0000fb0c   _TSK_idle
0000fb6c   _led_toggle_tsk
0000fb6c   led_toggle_tsk
0000fc75   PRD_LED_Toggel$sts$maxfmt
0000fc78   PRD_SWIHANDLE
0000fc78   PRD_swi
0000fc78   SWI_A_TABBEG
0000fc78   _PRD_swi
0000fc7e   PRD_LED_Toggel$sts$sumfmt
0000fc87   PRD_LED_Toggel$sts$avgfmt
0000fc92   PRD_swi$sts$maxfmt
0000fc9a   PRD_swi$sts$sumfmt
0000fca2   PRD_swi$sts$avgfmt
0000fca4   KNL_swi
0000fca4   _KNL_swi
0000fcac   KNL_swi$sts$maxfmt
0000fcb4   KNL_swi$sts$sumfmt
0000fcbc   KNL_swi$sts$avgfmt
0000fcc6   SWI_process_ping$sts$maxfmt
0000fcce   SWI_process_ping$sts$sumfmt
0000fcd0   SWI_process_ping
0000fcd0   _SWI_process_ping
0000fcd6   SWI_process_ping$sts$avgfmt
0000fce0   SWI_process_pong$sts$maxfmt
0000fce8   SWI_process_pong$sts$sumfmt
0000fcf0   SWI_process_pong$sts$avgfmt
0000fcfa   TSK_idle$sts$maxfmt
0000fcfc   SWI_process_pong
0000fcfc   _SWI_process_pong
0000fd02   TSK_idle$sts$sumfmt
0000fd0a   TSK_idle$sts$avgfmt
0000fd14   led_toggle_tsk$sts$maxfmt
0000fd1c   led_toggle_tsk$sts$sumfmt
0000fd24   led_toggle_tsk$sts$avgfmt
0000fd28   PRD_LED_Toggel$sts$stsobj
0000fd28   STS_A_TABBEG
0000fd28   SWI_A_TABEND
0000fd28   _STS_A_TABBEG
0000fd2c   PRD_LED_Toggel$sts
0000fd2e   IDL_busyObj$maxfmt
0000fd31   IDL_busyObj$sumfmt
0000fd34   IDL_busyObj$avgfmt
0000fd38   PRD_swi$sts$stsobj
0000fd3c   PRD_swi$sts
0000fd48   KNL_swi$sts$stsobj
0000fd4c   KNL_swi$sts
0000fd58   SWI_process_ping$sts$stsobj
0000fd5c   SWI_process_ping$sts
0000fd68   SWI_process_pong$sts$stsobj
0000fd6c   SWI_process_pong$sts
0000fd78   TSK_idle$sts$stsobj
0000fd7c   TSK_idle$sts
0000fd88   led_toggle_tsk$sts$stsobj
0000fd8c   led_toggle_tsk$sts
0000fd98   IDL_busyObj$stsobj
0000fd9c   IDL_busyObj
0000fd9c   _IDL_busyObj
0000fda8   STS_A_TABEND
0000fda8   _STS_A_TABEND
0000fdf4   HST_A_TABBEG
0000fdf4   _HST_A_TABBEG
0000fdf8   RTA_fromHost
0000fdf8   _RTA_fromHost
0000fe00   RTA_fromHost$rtdx
0000fe14   RTA_toHost
0000fe14   _RTA_toHost
0000fe1c   RTA_toHost$rtdx
0000fe30   HST_A_TABEND
0000fe30   _HST_A_TABEND
0000fe3c   SEM_LEDToggle
0000fe3c   _SEM_LEDToggle
0000fe84   PRD_A_TABBEG
0000fe84   PRD_LED_Toggel
0000fe84   _PRD_LED_Toggel
0000fea0   PRD_LED_Toggel$aaa
0000fea4   IDL_A_TABBEG
0000fea4   IDL_cpuLoad
0000fea4   PRD_A_TABEND
0000fea4   _IDL_cpuLoad
0000fea8   LNK_dataPump
0000fea8   _LNK_dataPump
0000feac   RTA_dispatcher
0000feac   _RTA_dispatcher
0000feb0   IDL_END
0000feb4   IDL_A_CALBEG
0000feb4   IDL_cpuLoad$
0000feb8   LNK_dataPump$
0000febc   RTA_dispatcher$
0000fec0   IDL_END$
0000fec4   SYS$config
0000fed4   ___pinit__
0000fed4   pinit
0000fee0   TRC_cinit
0000fee4   TRC_R_mask
0000fee4   _TRC_R_mask
0000fee8   GBL_initdone
00036ee8   CLK_LTIMEMULT
00036ee8   GBL_FREQ
0003f000   _Buffer_in_ping
0003f3e8   _Buffer_in_pong
0003f7d0   _Buffer_out_ping
0003fbb8   _Buffer_out_pong
01940000   CLK_REGS
01940000   _CLK_REGS
082039a3   HWI_INTRMULTHIGH
310718a4   HWI_INTRMULTLOW
80000000   SDRAM$B
80000000   _SDRAM_base
ffffffff   HST_DSMBUFSEG
ffffffff   IRAM
ffffffff   MyBuffers
ffffffff   RTDX_DATAMEMSEG
ffffffff   _IRAM
ffffffff   _MyBuffers
ffffffff   ___TI_pprof_out_hndl
ffffffff   ___TI_prof_data_size
ffffffff   ___TI_prof_data_start
ffffffff   ___binit__
ffffffff   ___c_args__
ffffffff   binit

[844 symbols]
